target datalayout = "e-m:e-p270:32:32-p271:32:32-p272:64:64-i64:64-i128:128-f80:128-n8:16:32:64-S128"
target triple = "x86_64-pc-linux-gnu"

%struct.expert_tapdata_t = type { [5 x ptr], ptr }

@.str.11 = private unnamed_addr constant [7 x i8] c"Errors\00", align 1
@.str.12 = private unnamed_addr constant [6 x i8] c"Warns\00", align 1
@.str.13 = private unnamed_addr constant [6 x i8] c"Notes\00", align 1
@.str.14 = private unnamed_addr constant [6 x i8] c"Chats\00", align 1
@.str.15 = private unnamed_addr constant [9 x i8] c"Comments\00", align 1

; Function Attrs: null_pointer_is_valid sspstrong uwtable
define internal void @expert_stat_draw(ptr noundef %0) #0 {
  %2 = alloca ptr, align 8
  %3 = alloca ptr, align 8
  store ptr %0, ptr %2, align 8
  call void @llvm.lifetime.start.p0(i64 8, ptr %3) #9
  %4 = load ptr, ptr %2, align 8
  store ptr %4, ptr %3, align 8
  %5 = load ptr, ptr %3, align 8
  %6 = getelementptr inbounds nuw %struct.expert_tapdata_t, ptr %5, i32 0, i32 0
  %7 = getelementptr [5 x ptr], ptr %6, i64 0, i64 4
  %8 = load ptr, ptr %7, align 8
  call void @draw_items_for_severity(ptr noundef %8, ptr noundef @.str.11)
  %9 = load ptr, ptr %3, align 8
  %10 = getelementptr inbounds nuw %struct.expert_tapdata_t, ptr %9, i32 0, i32 0
  %11 = getelementptr [5 x ptr], ptr %10, i64 0, i64 3
  %12 = load ptr, ptr %11, align 8
  call void @draw_items_for_severity(ptr noundef %12, ptr noundef @.str.12)
  %13 = load ptr, ptr %3, align 8
  %14 = getelementptr inbounds nuw %struct.expert_tapdata_t, ptr %13, i32 0, i32 0
  %15 = getelementptr [5 x ptr], ptr %14, i64 0, i64 2
  %16 = load ptr, ptr %15, align 8
  call void @draw_items_for_severity(ptr noundef %16, ptr noundef @.str.13)
  %17 = load ptr, ptr %3, align 8
  %18 = getelementptr inbounds nuw %struct.expert_tapdata_t, ptr %17, i32 0, i32 0
  %19 = getelementptr [5 x ptr], ptr %18, i64 0, i64 1
  %20 = load ptr, ptr %19, align 8
  call void @draw_items_for_severity(ptr noundef %20, ptr noundef @.str.14)
  %21 = load ptr, ptr %3, align 8
  %22 = getelementptr inbounds nuw %struct.expert_tapdata_t, ptr %21, i32 0, i32 0
  %23 = getelementptr [5 x ptr], ptr %22, i64 0, i64 0
  %24 = load ptr, ptr %23, align 8
  call void @draw_items_for_severity(ptr noundef %24, ptr noundef @.str.15)
  call void @llvm.lifetime.end.p0(i64 8, ptr %3) #9
  ret void
}