; Function Attrs: null_pointer_is_valid sspstrong uwtable
define internal void @expert_stat_draw(ptr noundef readonly captures(none) %0) #0 {
  %2 = getelementptr i8, ptr %0, i64 32
  %3 = load ptr, ptr %2, align 8
  tail call fastcc void @draw_items_for_severity(ptr noundef %3, ptr noundef nonnull @.str.11)
  %4 = getelementptr i8, ptr %0, i64 24
  %5 = load ptr, ptr %4, align 8
  tail call fastcc void @draw_items_for_severity(ptr noundef %5, ptr noundef nonnull @.str.12)
  %6 = getelementptr i8, ptr %0, i64 16
  %7 = load ptr, ptr %6, align 8
  tail call fastcc void @draw_items_for_severity(ptr noundef %7, ptr noundef nonnull @.str.13)
  %8 = getelementptr i8, ptr %0, i64 8
  %9 = load ptr, ptr %8, align 8
  tail call fastcc void @draw_items_for_severity(ptr noundef %9, ptr noundef nonnull @.str.14)
  %10 = load ptr, ptr %0, align 8
  tail call fastcc void @draw_items_for_severity(ptr noundef %10, ptr noundef nonnull @.str.15)
  ret void
}